target datalayout = "e-m:e-p270:32:32-p271:32:32-p272:64:64-i64:64-i128:128-f80:128-n8:16:32:64-S128"
target triple = "x86_64-pc-linux-gnu"

%"class.llvm::itanium_demangle::OutputBuffer" = type <{ ptr, i64, i64, i32, i32, i32, [4 x i8] }>
%"class.std::basic_string_view" = type { i64, ptr }
%"struct.llvm::ms_demangle::Node.base" = type <{ ptr, i32 }>
%"struct.llvm::ms_demangle::NodeArrayNode" = type { %"struct.llvm::ms_demangle::Node.base", ptr, i64 }

; Function Attrs: mustprogress nounwind uwtable
define linkonce_odr hidden noundef ptr @_ZNKSt17basic_string_viewIcSt11char_traitsIcEE5beginEv(ptr noundef nonnull align 8 dereferenceable(16) %0) #0 comdat align 2 {
  %2 = alloca ptr, align 8
  store ptr %0, ptr %2, align 8
  %3 = load ptr, ptr %2, align 8
  %4 = getelementptr inbounds nuw %"class.std::basic_string_view", ptr %3, i32 0, i32 1
  %5 = load ptr, ptr %4, align 8
  ret ptr %5
}

; Function Attrs: mustprogress nounwind uwtable
define linkonce_odr hidden void @_ZN4llvm16itanium_demangle12OutputBuffer4growEm(ptr noundef nonnull align 8 dereferenceable(36) %0, i64 noundef %1) #0 comdat align 2 {
  %3 = alloca ptr, align 8
  %4 = alloca i64, align 8
  %5 = alloca i64, align 8
  store ptr %0, ptr %3, align 8
  store i64 %1, ptr %4, align 8
  %6 = load ptr, ptr %3, align 8
  %7 = load i64, ptr %4, align 8
  %8 = getelementptr inbounds nuw %"class.llvm::itanium_demangle::OutputBuffer", ptr %6, i32 0, i32 1
  %9 = load i64, ptr %8, align 8
  %10 = add i64 %7, %9
  store i64 %10, ptr %5, align 8
  %11 = load i64, ptr %5, align 8
  %12 = getelementptr inbounds nuw %"class.llvm::itanium_demangle::OutputBuffer", ptr %6, i32 0, i32 2
  %13 = load i64, ptr %12, align 8
  %14 = icmp ugt i64 %11, %13
  br i1 %14, label %15, label %40

15:                                               ; preds = %2
  %16 = load i64, ptr %5, align 8
  %17 = add i64 %16, 992
  store i64 %17, ptr %5, align 8
  %18 = getelementptr inbounds nuw %"class.llvm::itanium_demangle::OutputBuffer", ptr %6, i32 0, i32 2
  %19 = load i64, ptr %18, align 8
  %20 = mul i64 %19, 2
  store i64 %20, ptr %18, align 8
  %21 = getelementptr inbounds nuw %"class.llvm::itanium_demangle::OutputBuffer", ptr %6, i32 0, i32 2
  %22 = load i64, ptr %21, align 8
  %23 = load i64, ptr %5, align 8
  %24 = icmp ult i64 %22, %23
  br i1 %24, label %25, label %28

25:                                               ; preds = %15
  %26 = load i64, ptr %5, align 8
  %27 = getelementptr inbounds nuw %"class.llvm::itanium_demangle::OutputBuffer", ptr %6, i32 0, i32 2
  store i64 %26, ptr %27, align 8
  br label %28

28:                                               ; preds = %25, %15
  %29 = getelementptr inbounds nuw %"class.llvm::itanium_demangle::OutputBuffer", ptr %6, i32 0, i32 0
  %30 = load ptr, ptr %29, align 8
  %31 = getelementptr inbounds nuw %"class.llvm::itanium_demangle::OutputBuffer", ptr %6, i32 0, i32 2
  %32 = load i64, ptr %31, align 8
  %33 = call ptr @realloc(ptr noundef %30, i64 noundef %32) #13
  %34 = getelementptr inbounds nuw %"class.llvm::itanium_demangle::OutputBuffer", ptr %6, i32 0, i32 0
  store ptr %33, ptr %34, align 8
  %35 = getelementptr inbounds nuw %"class.llvm::itanium_demangle::OutputBuffer", ptr %6, i32 0, i32 0
  %36 = load ptr, ptr %35, align 8
  %37 = icmp eq ptr %36, null
  br i1 %37, label %38, label %39

38:                                               ; preds = %28
  call void @abort() #14
  unreachable

39:                                               ; preds = %28
  br label %40

40:                                               ; preds = %39, %2
  ret void
}

; Function Attrs: mustprogress nounwind uwtable
define linkonce_odr hidden noundef i64 @_ZNKSt17basic_string_viewIcSt11char_traitsIcEE4sizeEv(ptr noundef nonnull align 8 dereferenceable(16) %0) #0 comdat align 2 {
  %2 = alloca ptr, align 8
  store ptr %0, ptr %2, align 8
  %3 = load ptr, ptr %2, align 8
  %4 = getelementptr inbounds nuw %"class.std::basic_string_view", ptr %3, i32 0, i32 0
  %5 = load i64, ptr %4, align 8
  ret i64 %5
}

; Function Attrs: mustprogress nounwind uwtable
define linkonce_odr hidden noundef nonnull align 8 dereferenceable(36) ptr @_ZN4llvm16itanium_demangle12OutputBufferpLESt17basic_string_viewIcSt11char_traitsIcEE(ptr noundef nonnull align 8 dereferenceable(36) %0, i64 %1, ptr %2) #0 comdat align 2 {
  %4 = alloca %"class.std::basic_string_view", align 8
  %5 = alloca ptr, align 8
  %6 = alloca i64, align 8
  %7 = getelementptr inbounds nuw { i64, ptr }, ptr %4, i32 0, i32 0
  store i64 %1, ptr %7, align 8
  %8 = getelementptr inbounds nuw { i64, ptr }, ptr %4, i32 0, i32 1
  store ptr %2, ptr %8, align 8
  store ptr %0, ptr %5, align 8
  %9 = load ptr, ptr %5, align 8
  %10 = call noundef i64 @_ZNKSt17basic_string_viewIcSt11char_traitsIcEE4sizeEv(ptr noundef nonnull align 8 dereferenceable(16) %4) #10
  store i64 %10, ptr %6, align 8
  %11 = load i64, ptr %6, align 8
  %12 = icmp ne i64 %11, 0
  br i1 %12, label %13, label %26

13:                                               ; preds = %3
  %14 = load i64, ptr %6, align 8
  call void @_ZN4llvm16itanium_demangle12OutputBuffer4growEm(ptr noundef nonnull align 8 dereferenceable(36) %9, i64 noundef %14)
  %15 = getelementptr inbounds nuw %"class.llvm::itanium_demangle::OutputBuffer", ptr %9, i32 0, i32 0
  %16 = load ptr, ptr %15, align 8
  %17 = getelementptr inbounds nuw %"class.llvm::itanium_demangle::OutputBuffer", ptr %9, i32 0, i32 1
  %18 = load i64, ptr %17, align 8
  %19 = getelementptr inbounds i8, ptr %16, i64 %18
  %20 = call noundef ptr @_ZNKSt17basic_string_viewIcSt11char_traitsIcEE5beginEv(ptr noundef nonnull align 8 dereferenceable(16) %4) #10
  %21 = load i64, ptr %6, align 8
  call void @llvm.memcpy.p0.p0.i64(ptr align 1 %19, ptr align 1 %20, i64 %21, i1 false)
  %22 = load i64, ptr %6, align 8
  %23 = getelementptr inbounds nuw %"class.llvm::itanium_demangle::OutputBuffer", ptr %9, i32 0, i32 1
  %24 = load i64, ptr %23, align 8
  %25 = add i64 %24, %22
  store i64 %25, ptr %23, align 8
  br label %26

26:                                               ; preds = %13, %3
  ret ptr %9
}

; Function Attrs: mustprogress nounwind uwtable
define linkonce_odr hidden noundef nonnull align 8 dereferenceable(36) ptr @_ZN4llvm16itanium_demangle12OutputBufferlsESt17basic_string_viewIcSt11char_traitsIcEE(ptr noundef nonnull align 8 dereferenceable(36) %0, i64 %1, ptr %2) #0 comdat align 2 {
  %4 = alloca %"class.std::basic_string_view", align 8
  %5 = alloca ptr, align 8
  %6 = alloca %"class.std::basic_string_view", align 8
  %7 = getelementptr inbounds nuw { i64, ptr }, ptr %4, i32 0, i32 0
  store i64 %1, ptr %7, align 8
  %8 = getelementptr inbounds nuw { i64, ptr }, ptr %4, i32 0, i32 1
  store ptr %2, ptr %8, align 8
  store ptr %0, ptr %5, align 8
  %9 = load ptr, ptr %5, align 8
  call void @llvm.memcpy.p0.p0.i64(ptr align 8 %6, ptr align 8 %4, i64 16, i1 false)
  %10 = getelementptr inbounds nuw { i64, ptr }, ptr %6, i32 0, i32 0
  %11 = load i64, ptr %10, align 8
  %12 = getelementptr inbounds nuw { i64, ptr }, ptr %6, i32 0, i32 1
  %13 = load ptr, ptr %12, align 8
  %14 = call noundef nonnull align 8 dereferenceable(36) ptr @_ZN4llvm16itanium_demangle12OutputBufferpLESt17basic_string_viewIcSt11char_traitsIcEE(ptr noundef nonnull align 8 dereferenceable(36) %9, i64 %11, ptr %13)
  ret ptr %14
}

; Function Attrs: mustprogress nounwind uwtable
define dso_local void @_ZNK4llvm11ms_demangle13NodeArrayNode6outputERNS_16itanium_demangle12OutputBufferENS0_11OutputFlagsESt17basic_string_viewIcSt11char_traitsIcEE(ptr noundef nonnull align 8 dereferenceable(32) %0, ptr noundef nonnull align 8 dereferenceable(36) %1, i32 noundef %2, i64 %3, ptr %4) #0 align 2 {
  %6 = alloca %"class.std::basic_string_view", align 8
  %7 = alloca ptr, align 8
  %8 = alloca ptr, align 8
  %9 = alloca i32, align 4
  %10 = alloca i64, align 8
  %11 = alloca %"class.std::basic_string_view", align 8
  %12 = getelementptr inbounds nuw { i64, ptr }, ptr %6, i32 0, i32 0
  store i64 %3, ptr %12, align 8
  %13 = getelementptr inbounds nuw { i64, ptr }, ptr %6, i32 0, i32 1
  store ptr %4, ptr %13, align 8
  store ptr %0, ptr %7, align 8
  store ptr %1, ptr %8, align 8
  store i32 %2, ptr %9, align 4
  %14 = load ptr, ptr %7, align 8
  %15 = getelementptr inbounds nuw %"struct.llvm::ms_demangle::NodeArrayNode", ptr %14, i32 0, i32 2
  %16 = load i64, ptr %15, align 8
  %17 = icmp eq i64 %16, 0
  br i1 %17, label %18, label %19

18:                                               ; preds = %5
  br label %61

19:                                               ; preds = %5
  %20 = getelementptr inbounds nuw %"struct.llvm::ms_demangle::NodeArrayNode", ptr %14, i32 0, i32 1
  %21 = load ptr, ptr %20, align 8
  %22 = getelementptr inbounds ptr, ptr %21, i64 0
  %23 = load ptr, ptr %22, align 8
  %24 = icmp ne ptr %23, null
  br i1 %24, label %25, label %35

25:                                               ; preds = %19
  %26 = getelementptr inbounds nuw %"struct.llvm::ms_demangle::NodeArrayNode", ptr %14, i32 0, i32 1
  %27 = load ptr, ptr %26, align 8
  %28 = getelementptr inbounds ptr, ptr %27, i64 0
  %29 = load ptr, ptr %28, align 8
  %30 = load ptr, ptr %8, align 8
  %31 = load i32, ptr %9, align 4
  %32 = load ptr, ptr %29, align 8
  %33 = getelementptr inbounds ptr, ptr %32, i64 2
  %34 = load ptr, ptr %33, align 8
  call void %34(ptr noundef nonnull align 8 dereferenceable(12) %29, ptr noundef nonnull align 8 dereferenceable(36) %30, i32 noundef %31)
  br label %35

35:                                               ; preds = %25, %19
  store i64 1, ptr %10, align 8
  br label %36

36:                                               ; preds = %58, %35
  %37 = load i64, ptr %10, align 8
  %38 = getelementptr inbounds nuw %"struct.llvm::ms_demangle::NodeArrayNode", ptr %14, i32 0, i32 2
  %39 = load i64, ptr %38, align 8
  %40 = icmp ult i64 %37, %39
  br i1 %40, label %41, label %61

41:                                               ; preds = %36
  %42 = load ptr, ptr %8, align 8
  call void @llvm.memcpy.p0.p0.i64(ptr align 8 %11, ptr align 8 %6, i64 16, i1 false)
  %43 = getelementptr inbounds nuw { i64, ptr }, ptr %11, i32 0, i32 0
  %44 = load i64, ptr %43, align 8
  %45 = getelementptr inbounds nuw { i64, ptr }, ptr %11, i32 0, i32 1
  %46 = load ptr, ptr %45, align 8
  %47 = call noundef nonnull align 8 dereferenceable(36) ptr @_ZN4llvm16itanium_demangle12OutputBufferlsESt17basic_string_viewIcSt11char_traitsIcEE(ptr noundef nonnull align 8 dereferenceable(36) %42, i64 %44, ptr %46)
  %48 = getelementptr inbounds nuw %"struct.llvm::ms_demangle::NodeArrayNode", ptr %14, i32 0, i32 1
  %49 = load ptr, ptr %48, align 8
  %50 = load i64, ptr %10, align 8
  %51 = getelementptr inbounds ptr, ptr %49, i64 %50
  %52 = load ptr, ptr %51, align 8
  %53 = load ptr, ptr %8, align 8
  %54 = load i32, ptr %9, align 4
  %55 = load ptr, ptr %52, align 8
  %56 = getelementptr inbounds ptr, ptr %55, i64 2
  %57 = load ptr, ptr %56, align 8
  call void %57(ptr noundef nonnull align 8 dereferenceable(12) %52, ptr noundef nonnull align 8 dereferenceable(36) %53, i32 noundef %54)
  br label %58

58:                                               ; preds = %41
  %59 = load i64, ptr %10, align 8
  %60 = add i64 %59, 1
  store i64 %60, ptr %10, align 8
  br label %36, !llvm.loop !4

61:                                               ; preds = %36, %18
  ret void
}