; Function Attrs: mustprogress nounwind uwtable
define dso_local void @_ZNK4llvm11ms_demangle13NodeArrayNode6outputERNS_16itanium_demangle12OutputBufferENS0_11OutputFlagsESt17basic_string_viewIcSt11char_traitsIcEE(ptr nocapture noundef nonnull readonly align 8 dereferenceable(32) %0, ptr noundef nonnull align 8 dereferenceable(36) %1, i32 noundef %2, i64 %3, ptr nocapture readonly %4) local_unnamed_addr #0 align 2 {
  %6 = getelementptr inbounds nuw i8, ptr %0, i64 24
  %7 = load i64, ptr %6, align 8
  %8 = icmp eq i64 %7, 0
  br i1 %8, label %.loopexit, label %9

9:                                                ; preds = %5
  %10 = getelementptr inbounds nuw i8, ptr %0, i64 16
  %11 = load ptr, ptr %10, align 8
  %12 = load ptr, ptr %11, align 8
  %.not = icmp eq ptr %12, null
  br i1 %.not, label %17, label %13

13:                                               ; preds = %9
  %14 = load ptr, ptr %12, align 8
  %15 = getelementptr inbounds i8, ptr %14, i64 16
  %16 = load ptr, ptr %15, align 8
  tail call void %16(ptr noundef nonnull align 8 dereferenceable(12) %12, ptr noundef nonnull align 8 dereferenceable(36) %1, i32 noundef %2) #15
  %.pre = load i64, ptr %6, align 8
  br label %17

17:                                               ; preds = %13, %9
  %18 = phi i64 [ %.pre, %13 ], [ %7, %9 ]
  %invariant.op = add i64 %3, 992
  %19 = icmp ugt i64 %18, 1
  br i1 %19, label %.lr.ph, label %.loopexit

.lr.ph:                                           ; preds = %17
  %.not.i.i = icmp eq i64 %3, 0
  %20 = getelementptr inbounds nuw i8, ptr %1, i64 8
  %21 = getelementptr inbounds nuw i8, ptr %1, i64 16
  br i1 %.not.i.i, label %_ZN4llvm16itanium_demangle12OutputBufferlsESt17basic_string_viewIcSt11char_traitsIcEE.exit.us, label %.lr.ph.split

_ZN4llvm16itanium_demangle12OutputBufferlsESt17basic_string_viewIcSt11char_traitsIcEE.exit.us: ; preds = %.lr.ph, %_ZN4llvm16itanium_demangle12OutputBufferlsESt17basic_string_viewIcSt11char_traitsIcEE.exit.us
  %.011.us = phi i64 [ %28, %_ZN4llvm16itanium_demangle12OutputBufferlsESt17basic_string_viewIcSt11char_traitsIcEE.exit.us ], [ 1, %.lr.ph ]
  %22 = load ptr, ptr %10, align 8
  %23 = getelementptr inbounds ptr, ptr %22, i64 %.011.us
  %24 = load ptr, ptr %23, align 8
  %25 = load ptr, ptr %24, align 8
  %26 = getelementptr inbounds i8, ptr %25, i64 16
  %27 = load ptr, ptr %26, align 8
  tail call void %27(ptr noundef nonnull align 8 dereferenceable(12) %24, ptr noundef nonnull align 8 dereferenceable(36) %1, i32 noundef %2) #15
  %28 = add nuw i64 %.011.us, 1
  %29 = load i64, ptr %6, align 8
  %30 = icmp ult i64 %28, %29
  br i1 %30, label %_ZN4llvm16itanium_demangle12OutputBufferlsESt17basic_string_viewIcSt11char_traitsIcEE.exit.us, label %.loopexit, !llvm.loop !4

.lr.ph.split:                                     ; preds = %.lr.ph, %_ZN4llvm16itanium_demangle12OutputBuffer4growEm.exit.i.i
  %.011 = phi i64 [ %51, %_ZN4llvm16itanium_demangle12OutputBuffer4growEm.exit.i.i ], [ 1, %.lr.ph ]
  %31 = load i64, ptr %20, align 8
  %32 = add i64 %31, %3
  %33 = load i64, ptr %21, align 8
  %34 = icmp ugt i64 %32, %33
  %.pre.i.i = load ptr, ptr %1, align 8
  br i1 %34, label %35, label %_ZN4llvm16itanium_demangle12OutputBuffer4growEm.exit.i.i

35:                                               ; preds = %.lr.ph.split
  %.reass = add i64 %31, %invariant.op
  %36 = shl i64 %33, 1
  %spec.select.i.i.i = tail call i64 @llvm.umax.i64(i64 %36, i64 %.reass)
  store i64 %spec.select.i.i.i, ptr %21, align 8
  %37 = tail call ptr @realloc(ptr noundef %.pre.i.i, i64 noundef %spec.select.i.i.i) #16
  store ptr %37, ptr %1, align 8
  %38 = icmp eq ptr %37, null
  br i1 %38, label %39, label %._ZN4llvm16itanium_demangle12OutputBuffer4growEm.exit_crit_edge.i.i

._ZN4llvm16itanium_demangle12OutputBuffer4growEm.exit_crit_edge.i.i: ; preds = %35
  %.pre4.i.i = load i64, ptr %20, align 8
  br label %_ZN4llvm16itanium_demangle12OutputBuffer4growEm.exit.i.i

39:                                               ; preds = %35
  tail call void @abort() #17
  unreachable

_ZN4llvm16itanium_demangle12OutputBuffer4growEm.exit.i.i: ; preds = %._ZN4llvm16itanium_demangle12OutputBuffer4growEm.exit_crit_edge.i.i, %.lr.ph.split
  %40 = phi i64 [ %31, %.lr.ph.split ], [ %.pre4.i.i, %._ZN4llvm16itanium_demangle12OutputBuffer4growEm.exit_crit_edge.i.i ]
  %41 = phi ptr [ %.pre.i.i, %.lr.ph.split ], [ %37, %._ZN4llvm16itanium_demangle12OutputBuffer4growEm.exit_crit_edge.i.i ]
  %42 = getelementptr inbounds i8, ptr %41, i64 %40
  tail call void @llvm.memcpy.p0.p0.i64(ptr align 1 %42, ptr align 1 %4, i64 %3, i1 false)
  %43 = load i64, ptr %20, align 8
  %44 = add i64 %43, %3
  store i64 %44, ptr %20, align 8
  %45 = load ptr, ptr %10, align 8
  %46 = getelementptr inbounds ptr, ptr %45, i64 %.011
  %47 = load ptr, ptr %46, align 8
  %48 = load ptr, ptr %47, align 8
  %49 = getelementptr inbounds i8, ptr %48, i64 16
  %50 = load ptr, ptr %49, align 8
  tail call void %50(ptr noundef nonnull align 8 dereferenceable(12) %47, ptr noundef nonnull align 8 dereferenceable(36) %1, i32 noundef %2) #15
  %51 = add nuw i64 %.011, 1
  %52 = load i64, ptr %6, align 8
  %53 = icmp ult i64 %51, %52
  br i1 %53, label %.lr.ph.split, label %.loopexit, !llvm.loop !4

.loopexit:                                        ; preds = %_ZN4llvm16itanium_demangle12OutputBuffer4growEm.exit.i.i, %_ZN4llvm16itanium_demangle12OutputBufferlsESt17basic_string_viewIcSt11char_traitsIcEE.exit.us, %17, %5
  ret void
}